target datalayout = "e-m:e-p270:32:32-p271:32:32-p272:64:64-i64:64-i128:128-f80:128-n8:16:32:64-S128"
target triple = "x86_64-pc-linux-gnu"

%"class.llvm::SmallVectorBase" = type { ptr, i32, i32 }
%"class.llvm::AnalysisUsage" = type <{ %"class.llvm::SmallVector", %"class.llvm::SmallVector.39", %"class.llvm::SmallVector.39", %"class.llvm::SmallVector.41", i8, [7 x i8] }>
%"class.llvm::SmallVector" = type { %"class.llvm::SmallVectorImpl", %"struct.llvm::SmallVectorStorage" }
%"class.llvm::SmallVectorImpl" = type { %"class.llvm::SmallVectorTemplateBase" }
%"class.llvm::SmallVectorTemplateBase" = type { %"class.llvm::SmallVectorTemplateCommon" }
%"class.llvm::SmallVectorTemplateCommon" = type { %"class.llvm::SmallVectorBase" }
%"struct.llvm::SmallVectorStorage" = type { [64 x i8] }
%"class.llvm::SmallVector.39" = type { %"class.llvm::SmallVectorImpl", %"struct.llvm::SmallVectorStorage.40" }
%"struct.llvm::SmallVectorStorage.40" = type { [16 x i8] }
%"class.llvm::SmallVector.41" = type { %"class.llvm::SmallVectorImpl" }

@_ZN4llvm28TargetLibraryInfoWrapperPass2IDE = external global i8, align 1
@_ZN4llvm30TargetTransformInfoWrapperPass2IDE = external global i8, align 1
@_ZN4llvm20AAResultsWrapperPass2IDE = external global i8, align 1
@_ZN4llvm20GlobalsAAWrapperPass2IDE = external global i8, align 1
@_ZN4llvm24DominatorTreeWrapperPass2IDE = external global i8, align 1

; Function Attrs: mustprogress nounwind uwtable
define linkonce_odr hidden noundef nonnull align 8 dereferenceable(161) ptr @_ZN4llvm13AnalysisUsage12addPreservedINS_24DominatorTreeWrapperPassEEERS0_v(ptr noundef nonnull align 8 dereferenceable(161) %0) #0 comdat align 2 {
  %2 = alloca ptr, align 8
  store ptr %0, ptr %2, align 8
  %3 = load ptr, ptr %2, align 8
  %4 = getelementptr inbounds nuw %"class.llvm::AnalysisUsage", ptr %3, i32 0, i32 2
  call void @_ZN4llvm13AnalysisUsage10pushUniqueERNS_15SmallVectorImplIPKvEES3_(ptr noundef nonnull align 8 dereferenceable(161) %3, ptr noundef nonnull align 8 dereferenceable(16) %4, ptr noundef @_ZN4llvm24DominatorTreeWrapperPass2IDE)
  ret ptr %3
}

; Function Attrs: mustprogress nounwind uwtable
define linkonce_odr hidden noundef nonnull align 8 dereferenceable(161) ptr @_ZN4llvm13AnalysisUsage12addPreservedINS_20GlobalsAAWrapperPassEEERS0_v(ptr noundef nonnull align 8 dereferenceable(161) %0) #0 comdat align 2 {
  %2 = alloca ptr, align 8
  store ptr %0, ptr %2, align 8
  %3 = load ptr, ptr %2, align 8
  %4 = getelementptr inbounds nuw %"class.llvm::AnalysisUsage", ptr %3, i32 0, i32 2
  call void @_ZN4llvm13AnalysisUsage10pushUniqueERNS_15SmallVectorImplIPKvEES3_(ptr noundef nonnull align 8 dereferenceable(161) %3, ptr noundef nonnull align 8 dereferenceable(16) %4, ptr noundef @_ZN4llvm20GlobalsAAWrapperPass2IDE)
  ret ptr %3
}

; Function Attrs: mustprogress nounwind uwtable
define linkonce_odr hidden noundef nonnull align 8 dereferenceable(161) ptr @_ZN4llvm13AnalysisUsage11addRequiredINS_20AAResultsWrapperPassEEERS0_v(ptr noundef nonnull align 8 dereferenceable(161) %0) #0 comdat align 2 {
  %2 = alloca ptr, align 8
  store ptr %0, ptr %2, align 8
  %3 = load ptr, ptr %2, align 8
  %4 = call noundef nonnull align 8 dereferenceable(161) ptr @_ZN4llvm13AnalysisUsage13addRequiredIDERc(ptr noundef nonnull align 8 dereferenceable(161) %3, ptr noundef nonnull align 1 dereferenceable(1) @_ZN4llvm20AAResultsWrapperPass2IDE)
  ret ptr %4
}

; Function Attrs: mustprogress nounwind uwtable
define linkonce_odr hidden noundef nonnull align 8 dereferenceable(161) ptr @_ZN4llvm13AnalysisUsage11addRequiredINS_30TargetTransformInfoWrapperPassEEERS0_v(ptr noundef nonnull align 8 dereferenceable(161) %0) #0 comdat align 2 {
  %2 = alloca ptr, align 8
  store ptr %0, ptr %2, align 8
  %3 = load ptr, ptr %2, align 8
  %4 = call noundef nonnull align 8 dereferenceable(161) ptr @_ZN4llvm13AnalysisUsage13addRequiredIDERc(ptr noundef nonnull align 8 dereferenceable(161) %3, ptr noundef nonnull align 1 dereferenceable(1) @_ZN4llvm30TargetTransformInfoWrapperPass2IDE)
  ret ptr %4
}

; Function Attrs: mustprogress nounwind uwtable
define linkonce_odr hidden noundef nonnull align 8 dereferenceable(161) ptr @_ZN4llvm13AnalysisUsage11addRequiredINS_28TargetLibraryInfoWrapperPassEEERS0_v(ptr noundef nonnull align 8 dereferenceable(161) %0) #0 comdat align 2 {
  %2 = alloca ptr, align 8
  store ptr %0, ptr %2, align 8
  %3 = load ptr, ptr %2, align 8
  %4 = call noundef nonnull align 8 dereferenceable(161) ptr @_ZN4llvm13AnalysisUsage13addRequiredIDERc(ptr noundef nonnull align 8 dereferenceable(161) %3, ptr noundef nonnull align 1 dereferenceable(1) @_ZN4llvm28TargetLibraryInfoWrapperPass2IDE)
  ret ptr %4
}

; Function Attrs: mustprogress nounwind uwtable
define internal void @_ZNK12_GLOBAL__N_120MergeICmpsLegacyPass16getAnalysisUsageERN4llvm13AnalysisUsageE(ptr noundef nonnull align 8 dereferenceable(28) %0, ptr noundef nonnull align 8 dereferenceable(161) %1) unnamed_addr #0 align 2 {
  %3 = alloca ptr, align 8
  %4 = alloca ptr, align 8
  store ptr %0, ptr %3, align 8
  store ptr %1, ptr %4, align 8
  %5 = load ptr, ptr %4, align 8
  %6 = call noundef nonnull align 8 dereferenceable(161) ptr @_ZN4llvm13AnalysisUsage11addRequiredINS_28TargetLibraryInfoWrapperPassEEERS0_v(ptr noundef nonnull align 8 dereferenceable(161) %5)
  %7 = load ptr, ptr %4, align 8
  %8 = call noundef nonnull align 8 dereferenceable(161) ptr @_ZN4llvm13AnalysisUsage11addRequiredINS_30TargetTransformInfoWrapperPassEEERS0_v(ptr noundef nonnull align 8 dereferenceable(161) %7)
  %9 = load ptr, ptr %4, align 8
  %10 = call noundef nonnull align 8 dereferenceable(161) ptr @_ZN4llvm13AnalysisUsage11addRequiredINS_20AAResultsWrapperPassEEERS0_v(ptr noundef nonnull align 8 dereferenceable(161) %9)
  %11 = load ptr, ptr %4, align 8
  %12 = call noundef nonnull align 8 dereferenceable(161) ptr @_ZN4llvm13AnalysisUsage12addPreservedINS_20GlobalsAAWrapperPassEEERS0_v(ptr noundef nonnull align 8 dereferenceable(161) %11)
  %13 = load ptr, ptr %4, align 8
  %14 = call noundef nonnull align 8 dereferenceable(161) ptr @_ZN4llvm13AnalysisUsage12addPreservedINS_24DominatorTreeWrapperPassEEERS0_v(ptr noundef nonnull align 8 dereferenceable(161) %13)
  ret void
}